target datalayout = "e-m:e-p270:32:32-p271:32:32-p272:64:64-i64:64-i128:128-f80:128-n8:16:32:64-S128"
target triple = "x86_64-pc-linux-gnu"

%struct.epan_uat = type { ptr, i64, ptr, i8, ptr, i32, ptr, ptr, ptr, ptr, ptr, ptr, ptr, ptr, ptr, i32, ptr, ptr, ptr, i8, ptr, ptr, i8 }
%struct._uat_field_t = type { ptr, ptr, i32, %struct.anon, %struct.anon.0, ptr, ptr, ptr }
%struct.anon = type { ptr, ptr, ptr }
%struct.anon.0 = type { ptr, ptr, ptr }

; Function Attrs: null_pointer_is_valid sspstrong uwtable
define internal void @free_uat(ptr noundef %0) #0 {
  %2 = alloca ptr, align 8
  %3 = alloca i32, align 4
  store ptr %0, ptr %2, align 8
  call void @llvm.lifetime.start.p0(i64 4, ptr %3) #13
  %4 = load ptr, ptr %2, align 8
  call void @uat_clear(ptr noundef %4)
  %5 = load ptr, ptr %2, align 8
  %6 = getelementptr inbounds nuw %struct.epan_uat, ptr %5, i32 0, i32 4
  %7 = load ptr, ptr %6, align 8
  call void @g_free(ptr noundef %7)
  %8 = load ptr, ptr %2, align 8
  %9 = getelementptr inbounds nuw %struct.epan_uat, ptr %8, i32 0, i32 0
  %10 = load ptr, ptr %9, align 8
  call void @g_free(ptr noundef %10)
  %11 = load ptr, ptr %2, align 8
  %12 = getelementptr inbounds nuw %struct.epan_uat, ptr %11, i32 0, i32 2
  %13 = load ptr, ptr %12, align 8
  call void @g_free(ptr noundef %13)
  %14 = load ptr, ptr %2, align 8
  %15 = getelementptr inbounds nuw %struct.epan_uat, ptr %14, i32 0, i32 16
  %16 = load ptr, ptr %15, align 8
  %17 = call ptr @g_array_free(ptr noundef %16, i32 noundef 1)
  %18 = load ptr, ptr %2, align 8
  %19 = getelementptr inbounds nuw %struct.epan_uat, ptr %18, i32 0, i32 17
  %20 = load ptr, ptr %19, align 8
  %21 = call ptr @g_array_free(ptr noundef %20, i32 noundef 1)
  %22 = load ptr, ptr %2, align 8
  %23 = getelementptr inbounds nuw %struct.epan_uat, ptr %22, i32 0, i32 18
  %24 = load ptr, ptr %23, align 8
  %25 = call ptr @g_array_free(ptr noundef %24, i32 noundef 1)
  store i32 0, ptr %3, align 4
  br label %26

26:                                               ; preds = %45, %1
  %27 = load ptr, ptr %2, align 8
  %28 = getelementptr inbounds nuw %struct.epan_uat, ptr %27, i32 0, i32 13
  %29 = load ptr, ptr %28, align 8
  %30 = load i32, ptr %3, align 4
  %31 = zext i32 %30 to i64
  %32 = getelementptr %struct._uat_field_t, ptr %29, i64 %31
  %33 = getelementptr inbounds nuw %struct._uat_field_t, ptr %32, i32 0, i32 1
  %34 = load ptr, ptr %33, align 8
  %35 = icmp ne ptr %34, null
  br i1 %35, label %36, label %48

36:                                               ; preds = %26
  %37 = load ptr, ptr %2, align 8
  %38 = getelementptr inbounds nuw %struct.epan_uat, ptr %37, i32 0, i32 13
  %39 = load ptr, ptr %38, align 8
  %40 = load i32, ptr %3, align 4
  %41 = zext i32 %40 to i64
  %42 = getelementptr %struct._uat_field_t, ptr %39, i64 %41
  %43 = getelementptr inbounds nuw %struct._uat_field_t, ptr %42, i32 0, i32 7
  %44 = load ptr, ptr %43, align 8
  call void @g_free(ptr noundef %44)
  br label %45

45:                                               ; preds = %36
  %46 = load i32, ptr %3, align 4
  %47 = add i32 %46, 1
  store i32 %47, ptr %3, align 4
  br label %26, !llvm.loop !28

48:                                               ; preds = %26
  %49 = load ptr, ptr %2, align 8
  call void @g_free(ptr noundef %49)
  call void @llvm.lifetime.end.p0(i64 4, ptr %3) #13
  ret void
}