; Function Attrs: null_pointer_is_valid sspstrong uwtable
define internal fastcc void @free_uat(ptr noundef %0) unnamed_addr #0 {
  tail call void @uat_clear(ptr noundef %0)
  %2 = getelementptr inbounds nuw i8, ptr %0, i64 32
  %3 = load ptr, ptr %2, align 8
  tail call void @g_free(ptr noundef %3)
  %4 = load ptr, ptr %0, align 8
  tail call void @g_free(ptr noundef %4)
  %5 = getelementptr inbounds nuw i8, ptr %0, i64 16
  %6 = load ptr, ptr %5, align 8
  tail call void @g_free(ptr noundef %6)
  %7 = getelementptr inbounds nuw i8, ptr %0, i64 128
  %8 = load ptr, ptr %7, align 8
  %9 = tail call ptr @g_array_free(ptr noundef %8, i32 noundef 1)
  %10 = getelementptr inbounds nuw i8, ptr %0, i64 136
  %11 = load ptr, ptr %10, align 8
  %12 = tail call ptr @g_array_free(ptr noundef %11, i32 noundef 1)
  %13 = getelementptr inbounds nuw i8, ptr %0, i64 144
  %14 = load ptr, ptr %13, align 8
  %15 = tail call ptr @g_array_free(ptr noundef %14, i32 noundef 1)
  %16 = getelementptr inbounds nuw i8, ptr %0, i64 104
  %17 = load ptr, ptr %16, align 8
  %18 = getelementptr inbounds nuw i8, ptr %17, i64 8
  %19 = load ptr, ptr %18, align 8
  %.not12 = icmp eq ptr %19, null
  br i1 %.not12, label %._crit_edge, label %.lr.ph

.lr.ph:                                           ; preds = %1, %.lr.ph
  %20 = phi ptr [ %26, %.lr.ph ], [ %17, %1 ]
  %.013 = phi i32 [ %23, %.lr.ph ], [ 0, %1 ]
  %21 = getelementptr inbounds nuw i8, ptr %20, i64 88
  %22 = load ptr, ptr %21, align 8
  tail call void @g_free(ptr noundef %22)
  %23 = add i32 %.013, 1
  %24 = load ptr, ptr %16, align 8
  %25 = zext i32 %23 to i64
  %26 = getelementptr %struct._uat_field_t, ptr %24, i64 %25
  %27 = getelementptr inbounds nuw i8, ptr %26, i64 8
  %28 = load ptr, ptr %27, align 8
  %.not = icmp eq ptr %28, null
  br i1 %.not, label %._crit_edge, label %.lr.ph, !llvm.loop !29

._crit_edge:                                      ; preds = %.lr.ph, %1
  tail call void @g_free(ptr noundef %0)
  ret void
}